target datalayout = "e-m:e-p270:32:32-p271:32:32-p272:64:64-i64:64-i128:128-f80:128-n8:16:32:64-S128"
target triple = "x86_64-pc-linux-gnu"

%struct.AVFilterContext = type { ptr, ptr, ptr, ptr, ptr, i32, ptr, ptr, i32, ptr, ptr, i32, i32, ptr, ptr, ptr, ptr, i32, ptr, i32, i32 }
%struct.XFadeContext = type { ptr, i32, i64, i64, ptr, i32, i32, i32, i64, i64, i64, i64, i32, [2 x i32], [2 x ptr], i32, [4 x i16], [4 x i16], ptr, ptr }
%struct.AVRational = type { i32, i32 }
%struct.AVFrame = type { [8 x ptr], [8 x i32], ptr, i32, i32, i32, i32, i32, %struct.AVRational, i64, i64, %struct.AVRational, i32, ptr, i32, i32, [8 x ptr], ptr, i32, ptr, i32, i32, i32, i32, i32, i32, i32, i64, ptr, i32, ptr, ptr, i64, i64, i64, i64, ptr, %struct.AVChannelLayout, i64 }
%struct.AVChannelLayout = type { i32, i32, %union.anon.1, ptr }
%union.anon.1 = type { i64 }

; Function Attrs: nounwind uwtable
define internal void @wipedown8_transition(ptr noundef %0, ptr noundef %1, ptr noundef %2, ptr noundef %3, float noundef %4, i32 noundef %5, i32 noundef %6, i32 noundef %7) #1 {
  %9 = alloca ptr, align 8
  %10 = alloca ptr, align 8
  %11 = alloca ptr, align 8
  %12 = alloca ptr, align 8
  %13 = alloca float, align 4
  %14 = alloca i32, align 4
  %15 = alloca i32, align 4
  %16 = alloca i32, align 4
  %17 = alloca ptr, align 8
  %18 = alloca i32, align 4
  %19 = alloca i32, align 4
  %20 = alloca i32, align 4
  %21 = alloca i32, align 4
  %22 = alloca i32, align 4
  %23 = alloca ptr, align 8
  %24 = alloca ptr, align 8
  %25 = alloca ptr, align 8
  %26 = alloca i32, align 4
  %27 = alloca i32, align 4
  store ptr %0, ptr %9, align 8, !tbaa !4
  store ptr %1, ptr %10, align 8, !tbaa !36
  store ptr %2, ptr %11, align 8, !tbaa !36
  store ptr %3, ptr %12, align 8, !tbaa !36
  store float %4, ptr %13, align 4, !tbaa !90
  store i32 %5, ptr %14, align 4, !tbaa !32
  store i32 %6, ptr %15, align 4, !tbaa !32
  store i32 %7, ptr %16, align 4, !tbaa !32
  call void @llvm.lifetime.start.p0(i64 8, ptr %17) #10
  %28 = load ptr, ptr %9, align 8, !tbaa !4
  %29 = getelementptr inbounds nuw %struct.AVFilterContext, ptr %28, i32 0, i32 9
  %30 = load ptr, ptr %29, align 8, !tbaa !9
  store ptr %30, ptr %17, align 8, !tbaa !22
  call void @llvm.lifetime.start.p0(i64 4, ptr %18) #10
  %31 = load i32, ptr %15, align 4, !tbaa !32
  %32 = load i32, ptr %14, align 4, !tbaa !32
  %33 = sub nsw i32 %31, %32
  store i32 %33, ptr %18, align 4, !tbaa !32
  call void @llvm.lifetime.start.p0(i64 4, ptr %19) #10
  %34 = load ptr, ptr %12, align 8, !tbaa !36
  %35 = getelementptr inbounds nuw %struct.AVFrame, ptr %34, i32 0, i32 3
  %36 = load i32, ptr %35, align 8, !tbaa !92
  store i32 %36, ptr %19, align 4, !tbaa !32
  call void @llvm.lifetime.start.p0(i64 4, ptr %20) #10
  %37 = load ptr, ptr %12, align 8, !tbaa !36
  %38 = getelementptr inbounds nuw %struct.AVFrame, ptr %37, i32 0, i32 4
  %39 = load i32, ptr %38, align 4, !tbaa !95
  %40 = sitofp i32 %39 to float
  %41 = load float, ptr %13, align 4, !tbaa !90
  %42 = fsub nsz float 1.000000e+00, %41
  %43 = fmul nsz float %40, %42
  %44 = fptosi float %43 to i32
  store i32 %44, ptr %20, align 4, !tbaa !32
  call void @llvm.lifetime.start.p0(i64 4, ptr %21) #10
  store i32 0, ptr %21, align 4, !tbaa !32
  br label %45

45:                                               ; preds = %177, %8
  %46 = load i32, ptr %21, align 4, !tbaa !32
  %47 = load ptr, ptr %17, align 8, !tbaa !22
  %48 = getelementptr inbounds nuw %struct.XFadeContext, ptr %47, i32 0, i32 5
  %49 = load i32, ptr %48, align 8, !tbaa !82
  %50 = icmp slt i32 %46, %49
  br i1 %50, label %52, label %51

51:                                               ; preds = %45
  store i32 2, ptr %22, align 4
  call void @llvm.lifetime.end.p0(i64 4, ptr %21) #10
  br label %180

52:                                               ; preds = %45
  call void @llvm.lifetime.start.p0(i64 8, ptr %23) #10
  %53 = load ptr, ptr %10, align 8, !tbaa !36
  %54 = getelementptr inbounds nuw %struct.AVFrame, ptr %53, i32 0, i32 0
  %55 = load i32, ptr %21, align 4, !tbaa !32
  %56 = sext i32 %55 to i64
  %57 = getelementptr inbounds [8 x ptr], ptr %54, i64 0, i64 %56
  %58 = load ptr, ptr %57, align 8, !tbaa !96
  %59 = load i32, ptr %14, align 4, !tbaa !32
  %60 = load ptr, ptr %10, align 8, !tbaa !36
  %61 = getelementptr inbounds nuw %struct.AVFrame, ptr %60, i32 0, i32 1
  %62 = load i32, ptr %21, align 4, !tbaa !32
  %63 = sext i32 %62 to i64
  %64 = getelementptr inbounds [8 x i32], ptr %61, i64 0, i64 %63
  %65 = load i32, ptr %64, align 4, !tbaa !32
  %66 = mul nsw i32 %59, %65
  %67 = sext i32 %66 to i64
  %68 = getelementptr inbounds i8, ptr %58, i64 %67
  store ptr %68, ptr %23, align 8, !tbaa !96
  call void @llvm.lifetime.start.p0(i64 8, ptr %24) #10
  %69 = load ptr, ptr %11, align 8, !tbaa !36
  %70 = getelementptr inbounds nuw %struct.AVFrame, ptr %69, i32 0, i32 0
  %71 = load i32, ptr %21, align 4, !tbaa !32
  %72 = sext i32 %71 to i64
  %73 = getelementptr inbounds [8 x ptr], ptr %70, i64 0, i64 %72
  %74 = load ptr, ptr %73, align 8, !tbaa !96
  %75 = load i32, ptr %14, align 4, !tbaa !32
  %76 = load ptr, ptr %11, align 8, !tbaa !36
  %77 = getelementptr inbounds nuw %struct.AVFrame, ptr %76, i32 0, i32 1
  %78 = load i32, ptr %21, align 4, !tbaa !32
  %79 = sext i32 %78 to i64
  %80 = getelementptr inbounds [8 x i32], ptr %77, i64 0, i64 %79
  %81 = load i32, ptr %80, align 4, !tbaa !32
  %82 = mul nsw i32 %75, %81
  %83 = sext i32 %82 to i64
  %84 = getelementptr inbounds i8, ptr %74, i64 %83
  store ptr %84, ptr %24, align 8, !tbaa !96
  call void @llvm.lifetime.start.p0(i64 8, ptr %25) #10
  %85 = load ptr, ptr %12, align 8, !tbaa !36
  %86 = getelementptr inbounds nuw %struct.AVFrame, ptr %85, i32 0, i32 0
  %87 = load i32, ptr %21, align 4, !tbaa !32
  %88 = sext i32 %87 to i64
  %89 = getelementptr inbounds [8 x ptr], ptr %86, i64 0, i64 %88
  %90 = load ptr, ptr %89, align 8, !tbaa !96
  %91 = load i32, ptr %14, align 4, !tbaa !32
  %92 = load ptr, ptr %12, align 8, !tbaa !36
  %93 = getelementptr inbounds nuw %struct.AVFrame, ptr %92, i32 0, i32 1
  %94 = load i32, ptr %21, align 4, !tbaa !32
  %95 = sext i32 %94 to i64
  %96 = getelementptr inbounds [8 x i32], ptr %93, i64 0, i64 %95
  %97 = load i32, ptr %96, align 4, !tbaa !32
  %98 = mul nsw i32 %91, %97
  %99 = sext i32 %98 to i64
  %100 = getelementptr inbounds i8, ptr %90, i64 %99
  store ptr %100, ptr %25, align 8, !tbaa !96
  call void @llvm.lifetime.start.p0(i64 4, ptr %26) #10
  store i32 0, ptr %26, align 4, !tbaa !32
  br label %101

101:                                              ; preds = %173, %52
  %102 = load i32, ptr %26, align 4, !tbaa !32
  %103 = load i32, ptr %18, align 4, !tbaa !32
  %104 = icmp slt i32 %102, %103
  br i1 %104, label %106, label %105

105:                                              ; preds = %101
  store i32 5, ptr %22, align 4
  call void @llvm.lifetime.end.p0(i64 4, ptr %26) #10
  br label %176

106:                                              ; preds = %101
  call void @llvm.lifetime.start.p0(i64 4, ptr %27) #10
  store i32 0, ptr %27, align 4, !tbaa !32
  br label %107

107:                                              ; preds = %139, %106
  %108 = load i32, ptr %27, align 4, !tbaa !32
  %109 = load i32, ptr %19, align 4, !tbaa !32
  %110 = icmp slt i32 %108, %109
  br i1 %110, label %112, label %111

111:                                              ; preds = %107
  store i32 8, ptr %22, align 4
  call void @llvm.lifetime.end.p0(i64 4, ptr %27) #10
  br label %142

112:                                              ; preds = %107
  %113 = load i32, ptr %14, align 4, !tbaa !32
  %114 = load i32, ptr %26, align 4, !tbaa !32
  %115 = add nsw i32 %113, %114
  %116 = load i32, ptr %20, align 4, !tbaa !32
  %117 = icmp sgt i32 %115, %116
  br i1 %117, label %118, label %125

118:                                              ; preds = %112
  %119 = load ptr, ptr %23, align 8, !tbaa !96
  %120 = load i32, ptr %27, align 4, !tbaa !32
  %121 = sext i32 %120 to i64
  %122 = getelementptr inbounds i8, ptr %119, i64 %121
  %123 = load i8, ptr %122, align 1, !tbaa !97
  %124 = zext i8 %123 to i32
  br label %132

125:                                              ; preds = %112
  %126 = load ptr, ptr %24, align 8, !tbaa !96
  %127 = load i32, ptr %27, align 4, !tbaa !32
  %128 = sext i32 %127 to i64
  %129 = getelementptr inbounds i8, ptr %126, i64 %128
  %130 = load i8, ptr %129, align 1, !tbaa !97
  %131 = zext i8 %130 to i32
  br label %132

132:                                              ; preds = %125, %118
  %133 = phi i32 [ %124, %118 ], [ %131, %125 ]
  %134 = trunc i32 %133 to i8
  %135 = load ptr, ptr %25, align 8, !tbaa !96
  %136 = load i32, ptr %27, align 4, !tbaa !32
  %137 = sext i32 %136 to i64
  %138 = getelementptr inbounds i8, ptr %135, i64 %137
  store i8 %134, ptr %138, align 1, !tbaa !97
  br label %139

139:                                              ; preds = %132
  %140 = load i32, ptr %27, align 4, !tbaa !32
  %141 = add nsw i32 %140, 1
  store i32 %141, ptr %27, align 4, !tbaa !32
  br label %107, !llvm.loop !130

142:                                              ; preds = %111
  %143 = load ptr, ptr %12, align 8, !tbaa !36
  %144 = getelementptr inbounds nuw %struct.AVFrame, ptr %143, i32 0, i32 1
  %145 = load i32, ptr %21, align 4, !tbaa !32
  %146 = sext i32 %145 to i64
  %147 = getelementptr inbounds [8 x i32], ptr %144, i64 0, i64 %146
  %148 = load i32, ptr %147, align 4, !tbaa !32
  %149 = sdiv i32 %148, 1
  %150 = load ptr, ptr %25, align 8, !tbaa !96
  %151 = sext i32 %149 to i64
  %152 = getelementptr inbounds i8, ptr %150, i64 %151
  store ptr %152, ptr %25, align 8, !tbaa !96
  %153 = load ptr, ptr %10, align 8, !tbaa !36
  %154 = getelementptr inbounds nuw %struct.AVFrame, ptr %153, i32 0, i32 1
  %155 = load i32, ptr %21, align 4, !tbaa !32
  %156 = sext i32 %155 to i64
  %157 = getelementptr inbounds [8 x i32], ptr %154, i64 0, i64 %156
  %158 = load i32, ptr %157, align 4, !tbaa !32
  %159 = sdiv i32 %158, 1
  %160 = load ptr, ptr %23, align 8, !tbaa !96
  %161 = sext i32 %159 to i64
  %162 = getelementptr inbounds i8, ptr %160, i64 %161
  store ptr %162, ptr %23, align 8, !tbaa !96
  %163 = load ptr, ptr %11, align 8, !tbaa !36
  %164 = getelementptr inbounds nuw %struct.AVFrame, ptr %163, i32 0, i32 1
  %165 = load i32, ptr %21, align 4, !tbaa !32
  %166 = sext i32 %165 to i64
  %167 = getelementptr inbounds [8 x i32], ptr %164, i64 0, i64 %166
  %168 = load i32, ptr %167, align 4, !tbaa !32
  %169 = sdiv i32 %168, 1
  %170 = load ptr, ptr %24, align 8, !tbaa !96
  %171 = sext i32 %169 to i64
  %172 = getelementptr inbounds i8, ptr %170, i64 %171
  store ptr %172, ptr %24, align 8, !tbaa !96
  br label %173

173:                                              ; preds = %142
  %174 = load i32, ptr %26, align 4, !tbaa !32
  %175 = add nsw i32 %174, 1
  store i32 %175, ptr %26, align 4, !tbaa !32
  br label %101, !llvm.loop !131

176:                                              ; preds = %105
  call void @llvm.lifetime.end.p0(i64 8, ptr %25) #10
  call void @llvm.lifetime.end.p0(i64 8, ptr %24) #10
  call void @llvm.lifetime.end.p0(i64 8, ptr %23) #10
  br label %177

177:                                              ; preds = %176
  %178 = load i32, ptr %21, align 4, !tbaa !32
  %179 = add nsw i32 %178, 1
  store i32 %179, ptr %21, align 4, !tbaa !32
  br label %45, !llvm.loop !132

180:                                              ; preds = %51
  call void @llvm.lifetime.end.p0(i64 4, ptr %20) #10
  call void @llvm.lifetime.end.p0(i64 4, ptr %19) #10
  call void @llvm.lifetime.end.p0(i64 4, ptr %18) #10
  call void @llvm.lifetime.end.p0(i64 8, ptr %17) #10
  ret void
}