; Function Attrs: nofree norecurse nosync nounwind memory(readwrite, inaccessiblemem: none) uwtable
define internal void @wipedown8_transition(ptr noundef readonly captures(none) %0, ptr noundef readonly captures(none) %1, ptr noundef readonly captures(none) %2, ptr noundef readonly captures(none) %3, float noundef %4, i32 noundef %5, i32 noundef %6, i32 %7) #6 {
  %9 = getelementptr inbounds nuw i8, ptr %0, i64 72
  %10 = load ptr, ptr %9, align 8, !tbaa !4
  %11 = sub i32 %6, %5
  %12 = getelementptr inbounds nuw i8, ptr %3, i64 104
  %13 = load i32, ptr %12, align 8, !tbaa !85
  %14 = getelementptr inbounds nuw i8, ptr %3, i64 108
  %15 = load i32, ptr %14, align 4, !tbaa !88
  %16 = sitofp i32 %15 to float
  %17 = fsub nsz float 1.000000e+00, %4
  %18 = fmul nsz float %17, %16
  %19 = fptosi float %18 to i32
  %20 = getelementptr inbounds nuw i8, ptr %10, i64 40
  %21 = load i32, ptr %20, align 8, !tbaa !77
  %22 = icmp sgt i32 %21, 0
  br i1 %22, label %.lr.ph, label %._crit_edge

.lr.ph:                                           ; preds = %8
  %23 = getelementptr inbounds nuw i8, ptr %1, i64 64
  %24 = getelementptr inbounds nuw i8, ptr %2, i64 64
  %25 = getelementptr inbounds nuw i8, ptr %3, i64 64
  %26 = icmp sgt i32 %11, 0
  %27 = icmp sgt i32 %13, 0
  %or.cond = select i1 %26, i1 %27, i1 false
  br i1 %or.cond, label %.preheader.lr.ph.us.us.preheader, label %._crit_edge

.preheader.lr.ph.us.us.preheader:                 ; preds = %.lr.ph
  %wide.trip.count = zext nneg i32 %13 to i64
  br label %.preheader.lr.ph.us.us

.preheader.lr.ph.us.us:                           ; preds = %.preheader.lr.ph.us.us.preheader, %._crit_edge58.split.us.us.us
  %indvars.iv71 = phi i64 [ 0, %.preheader.lr.ph.us.us.preheader ], [ %indvars.iv.next72, %._crit_edge58.split.us.us.us ]
  %28 = getelementptr inbounds nuw [8 x ptr], ptr %1, i64 0, i64 %indvars.iv71
  %29 = load ptr, ptr %28, align 8, !tbaa !89
  %30 = getelementptr inbounds nuw [8 x i32], ptr %23, i64 0, i64 %indvars.iv71
  %31 = load i32, ptr %30, align 4, !tbaa !31
  %32 = mul nsw i32 %31, %5
  %33 = sext i32 %32 to i64
  %34 = getelementptr inbounds i8, ptr %29, i64 %33
  %35 = getelementptr inbounds nuw [8 x ptr], ptr %2, i64 0, i64 %indvars.iv71
  %36 = load ptr, ptr %35, align 8, !tbaa !89
  %37 = getelementptr inbounds nuw [8 x i32], ptr %24, i64 0, i64 %indvars.iv71
  %38 = load i32, ptr %37, align 4, !tbaa !31
  %39 = mul nsw i32 %38, %5
  %40 = sext i32 %39 to i64
  %41 = getelementptr inbounds i8, ptr %36, i64 %40
  %42 = getelementptr inbounds nuw [8 x ptr], ptr %3, i64 0, i64 %indvars.iv71
  %43 = load ptr, ptr %42, align 8, !tbaa !89
  %44 = getelementptr inbounds nuw [8 x i32], ptr %25, i64 0, i64 %indvars.iv71
  %45 = load i32, ptr %44, align 4, !tbaa !31
  %46 = mul nsw i32 %45, %5
  %47 = sext i32 %46 to i64
  %48 = getelementptr inbounds i8, ptr %43, i64 %47
  br label %.preheader.us.us.us

.preheader.us.us.us:                              ; preds = %._crit_edge.us.us.us, %.preheader.lr.ph.us.us
  %.04757.us.us.us = phi i32 [ 0, %.preheader.lr.ph.us.us ], [ %62, %._crit_edge.us.us.us ]
  %.04856.us.us.us = phi ptr [ %48, %.preheader.lr.ph.us.us ], [ %55, %._crit_edge.us.us.us ]
  %.04955.us.us.us = phi ptr [ %41, %.preheader.lr.ph.us.us ], [ %61, %._crit_edge.us.us.us ]
  %.05054.us.us.us = phi ptr [ %34, %.preheader.lr.ph.us.us ], [ %58, %._crit_edge.us.us.us ]
  %49 = add nsw i32 %.04757.us.us.us, %5
  %50 = icmp sgt i32 %49, %19
  %.in.in.v.us.us.us = select i1 %50, ptr %.05054.us.us.us, ptr %.04955.us.us.us
  br label %51

51:                                               ; preds = %51, %.preheader.us.us.us
  %indvars.iv = phi i64 [ %indvars.iv.next, %51 ], [ 0, %.preheader.us.us.us ]
  %.in.in.us.us.us = getelementptr inbounds nuw i8, ptr %.in.in.v.us.us.us, i64 %indvars.iv
  %.in52.us.us.us = load i8, ptr %.in.in.us.us.us, align 1, !tbaa !90
  %52 = getelementptr inbounds nuw i8, ptr %.04856.us.us.us, i64 %indvars.iv
  store i8 %.in52.us.us.us, ptr %52, align 1, !tbaa !90
  %indvars.iv.next = add nuw nsw i64 %indvars.iv, 1
  %exitcond.not = icmp eq i64 %indvars.iv.next, %wide.trip.count
  br i1 %exitcond.not, label %._crit_edge.us.us.us, label %51, !llvm.loop !121

._crit_edge.us.us.us:                             ; preds = %51
  %53 = load i32, ptr %44, align 4, !tbaa !31
  %54 = sext i32 %53 to i64
  %55 = getelementptr inbounds i8, ptr %.04856.us.us.us, i64 %54
  %56 = load i32, ptr %30, align 4, !tbaa !31
  %57 = sext i32 %56 to i64
  %58 = getelementptr inbounds i8, ptr %.05054.us.us.us, i64 %57
  %59 = load i32, ptr %37, align 4, !tbaa !31
  %60 = sext i32 %59 to i64
  %61 = getelementptr inbounds i8, ptr %.04955.us.us.us, i64 %60
  %62 = add nuw nsw i32 %.04757.us.us.us, 1
  %exitcond70.not = icmp eq i32 %62, %11
  br i1 %exitcond70.not, label %._crit_edge58.split.us.us.us, label %.preheader.us.us.us, !llvm.loop !122

._crit_edge58.split.us.us.us:                     ; preds = %._crit_edge.us.us.us
  %indvars.iv.next72 = add nuw nsw i64 %indvars.iv71, 1
  %63 = load i32, ptr %20, align 8, !tbaa !77
  %64 = sext i32 %63 to i64
  %65 = icmp slt i64 %indvars.iv.next72, %64
  br i1 %65, label %.preheader.lr.ph.us.us, label %._crit_edge, !llvm.loop !123

._crit_edge:                                      ; preds = %._crit_edge58.split.us.us.us, %.lr.ph, %8
  ret void
}